target datalayout = "e-m:e-p270:32:32-p271:32:32-p272:64:64-i64:64-i128:128-f80:128-n8:16:32:64-S128"
target triple = "x86_64-pc-linux-gnu"

%"struct.duckdb_zstd::HUF_CTableHeader" = type { i8, i8, [6 x i8] }

; Function Attrs: mustprogress nounwind uwtable
define internal noundef i64 @_ZN11duckdb_zstdL13HUF_getNbBitsEm(i64 noundef %0) #0 {
  %2 = alloca i64, align 8
  store i64 %0, ptr %2, align 8, !tbaa !9
  %3 = load i64, ptr %2, align 8, !tbaa !9
  %4 = and i64 %3, 255
  ret i64 %4
}

; Function Attrs: mustprogress nounwind uwtable
define i64 @_ZN11duckdb_zstd20HUF_readCTableHeaderEPKm(ptr noundef %0) #0 {
  %2 = alloca %"struct.duckdb_zstd::HUF_CTableHeader", align 1
  %3 = alloca ptr, align 8
  store ptr %0, ptr %3, align 8, !tbaa !3
  %4 = load ptr, ptr %3, align 8, !tbaa !3
  call void @llvm.memcpy.p0.p0.i64(ptr align 1 %2, ptr align 8 %4, i64 8, i1 false)
  %5 = load i64, ptr %2, align 1
  ret i64 %5
}

; Function Attrs: mustprogress uwtable
define noundef i32 @_ZN11duckdb_zstd18HUF_validateCTableEPKmPKjj(ptr noundef %0, ptr noundef %1, i32 noundef %2) #2 {
  %4 = alloca i32, align 4
  %5 = alloca ptr, align 8
  %6 = alloca ptr, align 8
  %7 = alloca i32, align 4
  %8 = alloca %"struct.duckdb_zstd::HUF_CTableHeader", align 1
  %9 = alloca ptr, align 8
  %10 = alloca i32, align 4
  %11 = alloca i32, align 4
  %12 = alloca i32, align 4
  store ptr %0, ptr %5, align 8, !tbaa !3
  store ptr %1, ptr %6, align 8, !tbaa !20
  store i32 %2, ptr %7, align 4, !tbaa !11
  call void @llvm.lifetime.start.p0(i64 8, ptr %8) #12
  %13 = load ptr, ptr %5, align 8, !tbaa !3
  %14 = call i64 @_ZN11duckdb_zstd20HUF_readCTableHeaderEPKm(ptr noundef %13)
  store i64 %14, ptr %8, align 1
  call void @llvm.lifetime.start.p0(i64 8, ptr %9) #12
  %15 = load ptr, ptr %5, align 8, !tbaa !3
  %16 = getelementptr inbounds i64, ptr %15, i64 1
  store ptr %16, ptr %9, align 8, !tbaa !3
  call void @llvm.lifetime.start.p0(i64 4, ptr %10) #12
  store i32 0, ptr %10, align 4, !tbaa !11
  call void @llvm.lifetime.start.p0(i64 4, ptr %11) #12
  %17 = getelementptr inbounds nuw %"struct.duckdb_zstd::HUF_CTableHeader", ptr %8, i32 0, i32 1
  %18 = load i8, ptr %17, align 1, !tbaa !31
  %19 = zext i8 %18 to i32
  %20 = load i32, ptr %7, align 4, !tbaa !11
  %21 = icmp ult i32 %19, %20
  br i1 %21, label %22, label %23

22:                                               ; preds = %3
  store i32 0, ptr %4, align 4
  store i32 1, ptr %12, align 4
  br label %55

23:                                               ; preds = %3
  store i32 0, ptr %11, align 4, !tbaa !11
  br label %24

24:                                               ; preds = %47, %23
  %25 = load i32, ptr %11, align 4, !tbaa !11
  %26 = load i32, ptr %7, align 4, !tbaa !11
  %27 = icmp sle i32 %25, %26
  br i1 %27, label %28, label %50

28:                                               ; preds = %24
  %29 = load ptr, ptr %6, align 8, !tbaa !20
  %30 = load i32, ptr %11, align 4, !tbaa !11
  %31 = sext i32 %30 to i64
  %32 = getelementptr inbounds i32, ptr %29, i64 %31
  %33 = load i32, ptr %32, align 4, !tbaa !11
  %34 = icmp ne i32 %33, 0
  %35 = zext i1 %34 to i32
  %36 = load ptr, ptr %9, align 8, !tbaa !3
  %37 = load i32, ptr %11, align 4, !tbaa !11
  %38 = sext i32 %37 to i64
  %39 = getelementptr inbounds i64, ptr %36, i64 %38
  %40 = load i64, ptr %39, align 8, !tbaa !9
  %41 = call noundef i64 @_ZN11duckdb_zstdL13HUF_getNbBitsEm(i64 noundef %40)
  %42 = icmp eq i64 %41, 0
  %43 = zext i1 %42 to i32
  %44 = and i32 %35, %43
  %45 = load i32, ptr %10, align 4, !tbaa !11
  %46 = or i32 %45, %44
  store i32 %46, ptr %10, align 4, !tbaa !11
  br label %47

47:                                               ; preds = %28
  %48 = load i32, ptr %11, align 4, !tbaa !11
  %49 = add nsw i32 %48, 1
  store i32 %49, ptr %11, align 4, !tbaa !11
  br label %24, !llvm.loop !64

50:                                               ; preds = %24
  %51 = load i32, ptr %10, align 4, !tbaa !11
  %52 = icmp ne i32 %51, 0
  %53 = xor i1 %52, true
  %54 = zext i1 %53 to i32
  store i32 %54, ptr %4, align 4
  store i32 1, ptr %12, align 4
  br label %55

55:                                               ; preds = %50, %22
  call void @llvm.lifetime.end.p0(i64 4, ptr %11) #12
  call void @llvm.lifetime.end.p0(i64 4, ptr %10) #12
  call void @llvm.lifetime.end.p0(i64 8, ptr %9) #12
  call void @llvm.lifetime.end.p0(i64 8, ptr %8) #12
  %56 = load i32, ptr %4, align 4
  ret i32 %56
}