; Function Attrs: mustprogress nofree norecurse nosync nounwind willreturn memory(argmem: read) uwtable
define noundef range(i32 0, 2) i32 @_ZN11duckdb_zstd18HUF_validateCTableEPKmPKjj(ptr noundef readonly captures(none) %0, ptr noundef readonly captures(none) %1, i32 noundef %2) local_unnamed_addr #0 {
  %.sroa.0.0.copyload.i = load i64, ptr %0, align 8
  %4 = trunc i64 %.sroa.0.0.copyload.i to i32
  %5 = lshr i32 %4, 8
  %6 = getelementptr inbounds nuw i8, ptr %0, i64 8
  %7 = and i32 %5, 255
  %8 = icmp ult i32 %7, %2
  br i1 %8, label %22, label %.preheader.preheader

.preheader.preheader:                             ; preds = %3
  %9 = add nuw nsw i32 %2, 1
  %wide.trip.count = zext nneg i32 %9 to i64
  br label %.preheader

.preheader:                                       ; preds = %.preheader.preheader, %.preheader
  %indvars.iv = phi i64 [ 0, %.preheader.preheader ], [ %indvars.iv.next, %.preheader ]
  %.01216 = phi i32 [ 0, %.preheader.preheader ], [ %19, %.preheader ]
  %10 = getelementptr inbounds nuw i32, ptr %1, i64 %indvars.iv
  %11 = load i32, ptr %10, align 4, !tbaa !11
  %12 = icmp ne i32 %11, 0
  %13 = getelementptr inbounds nuw i64, ptr %6, i64 %indvars.iv
  %14 = load i64, ptr %13, align 8, !tbaa !8
  %15 = and i64 %14, 255
  %16 = icmp eq i64 %15, 0
  %17 = and i1 %12, %16
  %18 = zext i1 %17 to i32
  %19 = or i32 %.01216, %18
  %indvars.iv.next = add nuw nsw i64 %indvars.iv, 1
  %exitcond.not = icmp eq i64 %indvars.iv.next, %wide.trip.count
  br i1 %exitcond.not, label %20, label %.preheader, !llvm.loop !51

20:                                               ; preds = %.preheader
  %.not15 = icmp eq i32 %19, 0
  %21 = zext i1 %.not15 to i32
  br label %22

22:                                               ; preds = %3, %20
  %.013 = phi i32 [ %21, %20 ], [ 0, %3 ]
  ret i32 %.013
}